target datalayout = "e-m:e-p270:32:32-p271:32:32-p272:64:64-i64:64-i128:128-f80:128-n8:16:32:64-S128"
target triple = "x86_64-pc-linux-gnu"

%struct.FLACContext = type { ptr, %struct.FLACStreaminfo, ptr, %struct.GetBitContext, i32, i32, i32, i32, [8 x ptr], ptr, i32, ptr, ptr, i32, i32, %struct.FLACDSPContext }
%struct.FLACStreaminfo = type { i32, i32, i32, i32, i32, i64 }
%struct.GetBitContext = type { ptr, ptr, i32, i32, i32 }
%struct.FLACDSPContext = type { [4 x ptr], ptr, ptr, ptr, ptr, ptr }
%union.anon.3 = type { i64 }

@.str.36 = private unnamed_addr constant [25 x i8] c"invalid coeff precision\0A\00", align 1
@.str.37 = private unnamed_addr constant [45 x i8] c"qlevel %d not supported, maybe buggy stream\0A\00", align 1

; Function Attrs: inlinehint nounwind uwtable
define internal i32 @get_bits_long(ptr noundef %0, i32 noundef %1) #7 {
  %3 = alloca i32, align 4
  %4 = alloca ptr, align 8
  %5 = alloca i32, align 4
  %6 = alloca i32, align 4
  store ptr %0, ptr %4, align 8, !tbaa !71
  store i32 %1, ptr %5, align 4, !tbaa !39
  %7 = load i32, ptr %5, align 4, !tbaa !39
  %8 = icmp ne i32 %7, 0
  br i1 %8, label %10, label %9

9:                                                ; preds = %2
  store i32 0, ptr %3, align 4
  br label %29

10:                                               ; preds = %2
  %11 = load i32, ptr %5, align 4, !tbaa !39
  %12 = icmp sle i32 %11, 25
  br i1 %12, label %13, label %17

13:                                               ; preds = %10
  %14 = load ptr, ptr %4, align 8, !tbaa !71
  %15 = load i32, ptr %5, align 4, !tbaa !39
  %16 = call i32 @get_bits(ptr noundef %14, i32 noundef %15)
  store i32 %16, ptr %3, align 4
  br label %29

17:                                               ; preds = %10
  call void @llvm.lifetime.start.p0(i64 4, ptr %6) #11
  %18 = load ptr, ptr %4, align 8, !tbaa !71
  %19 = call i32 @get_bits(ptr noundef %18, i32 noundef 16)
  %20 = load i32, ptr %5, align 4, !tbaa !39
  %21 = sub nsw i32 %20, 16
  %22 = shl i32 %19, %21
  store i32 %22, ptr %6, align 4, !tbaa !39
  %23 = load i32, ptr %6, align 4, !tbaa !39
  %24 = load ptr, ptr %4, align 8, !tbaa !71
  %25 = load i32, ptr %5, align 4, !tbaa !39
  %26 = sub nsw i32 %25, 16
  %27 = call i32 @get_bits(ptr noundef %24, i32 noundef %26)
  %28 = or i32 %23, %27
  store i32 %28, ptr %3, align 4
  call void @llvm.lifetime.end.p0(i64 4, ptr %6) #11
  br label %29

29:                                               ; preds = %17, %13, %9
  %30 = load i32, ptr %3, align 4
  ret i32 %30
}

; Function Attrs: alwaysinline nounwind willreturn memory(none) uwtable
define internal i32 @av_bswap32(i32 noundef %0) #6 {
  %2 = alloca i32, align 4
  store i32 %0, ptr %2, align 4, !tbaa !39
  %3 = load i32, ptr %2, align 4, !tbaa !39
  %4 = shl i32 %3, 8
  %5 = and i32 %4, 65280
  %6 = load i32, ptr %2, align 4, !tbaa !39
  %7 = lshr i32 %6, 8
  %8 = and i32 %7, 255
  %9 = or i32 %5, %8
  %10 = shl i32 %9, 16
  %11 = load i32, ptr %2, align 4, !tbaa !39
  %12 = lshr i32 %11, 16
  %13 = shl i32 %12, 8
  %14 = and i32 %13, 65280
  %15 = load i32, ptr %2, align 4, !tbaa !39
  %16 = lshr i32 %15, 16
  %17 = lshr i32 %16, 8
  %18 = and i32 %17, 255
  %19 = or i32 %14, %18
  %20 = or i32 %10, %19
  ret i32 %20
}

; Function Attrs: inlinehint nounwind willreturn memory(none) uwtable
define internal i64 @sign_extend64(i64 noundef %0, i32 noundef %1) #10 {
  %3 = alloca i64, align 8
  %4 = alloca i32, align 4
  %5 = alloca i32, align 4
  %6 = alloca %union.anon.3, align 8
  store i64 %0, ptr %3, align 8, !tbaa !87
  store i32 %1, ptr %4, align 4, !tbaa !39
  call void @llvm.lifetime.start.p0(i64 4, ptr %5) #11
  %7 = load i32, ptr %4, align 4, !tbaa !39
  %8 = zext i32 %7 to i64
  %9 = sub i64 64, %8
  %10 = trunc i64 %9 to i32
  store i32 %10, ptr %5, align 4, !tbaa !39
  call void @llvm.lifetime.start.p0(i64 8, ptr %6) #11
  %11 = load i64, ptr %3, align 8, !tbaa !87
  %12 = load i32, ptr %5, align 4, !tbaa !39
  %13 = zext i32 %12 to i64
  %14 = shl i64 %11, %13
  store i64 %14, ptr %6, align 8, !tbaa !51
  %15 = load i64, ptr %6, align 8, !tbaa !51
  %16 = load i32, ptr %5, align 4, !tbaa !39
  %17 = zext i32 %16 to i64
  %18 = ashr i64 %15, %17
  call void @llvm.lifetime.end.p0(i64 8, ptr %6) #11
  call void @llvm.lifetime.end.p0(i64 4, ptr %5) #11
  ret i64 %18
}

; Function Attrs: inlinehint nounwind uwtable
define internal i64 @get_bits64(ptr noundef %0, i32 noundef %1) #7 {
  %3 = alloca i64, align 8
  %4 = alloca ptr, align 8
  %5 = alloca i32, align 4
  %6 = alloca i64, align 8
  store ptr %0, ptr %4, align 8, !tbaa !71
  store i32 %1, ptr %5, align 4, !tbaa !39
  %7 = load i32, ptr %5, align 4, !tbaa !39
  %8 = icmp sle i32 %7, 32
  br i1 %8, label %9, label %14

9:                                                ; preds = %2
  %10 = load ptr, ptr %4, align 8, !tbaa !71
  %11 = load i32, ptr %5, align 4, !tbaa !39
  %12 = call i32 @get_bits_long(ptr noundef %10, i32 noundef %11)
  %13 = zext i32 %12 to i64
  store i64 %13, ptr %3, align 8
  br label %26

14:                                               ; preds = %2
  call void @llvm.lifetime.start.p0(i64 8, ptr %6) #11
  %15 = load ptr, ptr %4, align 8, !tbaa !71
  %16 = load i32, ptr %5, align 4, !tbaa !39
  %17 = sub nsw i32 %16, 32
  %18 = call i32 @get_bits_long(ptr noundef %15, i32 noundef %17)
  %19 = zext i32 %18 to i64
  %20 = shl i64 %19, 32
  store i64 %20, ptr %6, align 8, !tbaa !87
  %21 = load i64, ptr %6, align 8, !tbaa !87
  %22 = load ptr, ptr %4, align 8, !tbaa !71
  %23 = call i32 @get_bits_long(ptr noundef %22, i32 noundef 32)
  %24 = zext i32 %23 to i64
  %25 = or i64 %21, %24
  store i64 %25, ptr %3, align 8
  call void @llvm.lifetime.end.p0(i64 8, ptr %6) #11
  br label %26

26:                                               ; preds = %14, %9
  %27 = load i64, ptr %3, align 8
  ret i64 %27
}

; Function Attrs: inlinehint nounwind uwtable
define internal i32 @get_sbits(ptr noundef %0, i32 noundef %1) #7 {
  %3 = alloca ptr, align 8
  %4 = alloca i32, align 4
  %5 = alloca i32, align 4
  %6 = alloca i32, align 4
  %7 = alloca i32, align 4
  %8 = alloca i32, align 4
  store ptr %0, ptr %3, align 8, !tbaa !71
  store i32 %1, ptr %4, align 4, !tbaa !39
  call void @llvm.lifetime.start.p0(i64 4, ptr %5) #11
  call void @llvm.lifetime.start.p0(i64 4, ptr %6) #11
  %9 = load ptr, ptr %3, align 8, !tbaa !71
  %10 = getelementptr inbounds nuw %struct.GetBitContext, ptr %9, i32 0, i32 2
  %11 = load i32, ptr %10, align 8, !tbaa !83
  store i32 %11, ptr %6, align 4, !tbaa !39
  call void @llvm.lifetime.start.p0(i64 4, ptr %7) #11
  call void @llvm.lifetime.start.p0(i64 4, ptr %8) #11
  %12 = load ptr, ptr %3, align 8, !tbaa !71
  %13 = getelementptr inbounds nuw %struct.GetBitContext, ptr %12, i32 0, i32 4
  %14 = load i32, ptr %13, align 8, !tbaa !93
  store i32 %14, ptr %8, align 4, !tbaa !39
  %15 = load ptr, ptr %3, align 8, !tbaa !71
  %16 = getelementptr inbounds nuw %struct.GetBitContext, ptr %15, i32 0, i32 0
  %17 = load ptr, ptr %16, align 8, !tbaa !91
  %18 = load i32, ptr %6, align 4, !tbaa !39
  %19 = lshr i32 %18, 3
  %20 = zext i32 %19 to i64
  %21 = getelementptr inbounds nuw i8, ptr %17, i64 %20
  %22 = load i32, ptr %21, align 1, !tbaa !51
  %23 = call i32 @av_bswap32(i32 noundef %22) #13
  %24 = load i32, ptr %6, align 4, !tbaa !39
  %25 = and i32 %24, 7
  %26 = shl i32 %23, %25
  %27 = lshr i32 %26, 0
  store i32 %27, ptr %7, align 4, !tbaa !39
  %28 = load i32, ptr %7, align 4, !tbaa !39
  %29 = load i32, ptr %4, align 4, !tbaa !39
  %30 = sub nsw i32 32, %29
  %31 = ashr i32 %28, %30
  store i32 %31, ptr %5, align 4, !tbaa !39
  %32 = load i32, ptr %8, align 4, !tbaa !39
  %33 = load i32, ptr %6, align 4, !tbaa !39
  %34 = load i32, ptr %4, align 4, !tbaa !39
  %35 = add i32 %33, %34
  %36 = icmp ugt i32 %32, %35
  br i1 %36, label %37, label %41

37:                                               ; preds = %2
  %38 = load i32, ptr %6, align 4, !tbaa !39
  %39 = load i32, ptr %4, align 4, !tbaa !39
  %40 = add i32 %38, %39
  br label %43

41:                                               ; preds = %2
  %42 = load i32, ptr %8, align 4, !tbaa !39
  br label %43

43:                                               ; preds = %41, %37
  %44 = phi i32 [ %40, %37 ], [ %42, %41 ]
  store i32 %44, ptr %6, align 4, !tbaa !39
  %45 = load i32, ptr %6, align 4, !tbaa !39
  %46 = load ptr, ptr %3, align 8, !tbaa !71
  %47 = getelementptr inbounds nuw %struct.GetBitContext, ptr %46, i32 0, i32 2
  store i32 %45, ptr %47, align 8, !tbaa !83
  %48 = load i32, ptr %5, align 4, !tbaa !39
  call void @llvm.lifetime.end.p0(i64 4, ptr %8) #11
  call void @llvm.lifetime.end.p0(i64 4, ptr %7) #11
  call void @llvm.lifetime.end.p0(i64 4, ptr %6) #11
  call void @llvm.lifetime.end.p0(i64 4, ptr %5) #11
  ret i32 %48
}

; Function Attrs: inlinehint nounwind uwtable
define internal i32 @get_bits(ptr noundef %0, i32 noundef %1) #7 {
  %3 = alloca ptr, align 8
  %4 = alloca i32, align 4
  %5 = alloca i32, align 4
  %6 = alloca i32, align 4
  %7 = alloca i32, align 4
  %8 = alloca i32, align 4
  store ptr %0, ptr %3, align 8, !tbaa !71
  store i32 %1, ptr %4, align 4, !tbaa !39
  call void @llvm.lifetime.start.p0(i64 4, ptr %5) #11
  call void @llvm.lifetime.start.p0(i64 4, ptr %6) #11
  %9 = load ptr, ptr %3, align 8, !tbaa !71
  %10 = getelementptr inbounds nuw %struct.GetBitContext, ptr %9, i32 0, i32 2
  %11 = load i32, ptr %10, align 8, !tbaa !83
  store i32 %11, ptr %6, align 4, !tbaa !39
  call void @llvm.lifetime.start.p0(i64 4, ptr %7) #11
  call void @llvm.lifetime.start.p0(i64 4, ptr %8) #11
  %12 = load ptr, ptr %3, align 8, !tbaa !71
  %13 = getelementptr inbounds nuw %struct.GetBitContext, ptr %12, i32 0, i32 4
  %14 = load i32, ptr %13, align 8, !tbaa !93
  store i32 %14, ptr %8, align 4, !tbaa !39
  %15 = load ptr, ptr %3, align 8, !tbaa !71
  %16 = getelementptr inbounds nuw %struct.GetBitContext, ptr %15, i32 0, i32 0
  %17 = load ptr, ptr %16, align 8, !tbaa !91
  %18 = load i32, ptr %6, align 4, !tbaa !39
  %19 = lshr i32 %18, 3
  %20 = zext i32 %19 to i64
  %21 = getelementptr inbounds nuw i8, ptr %17, i64 %20
  %22 = load i32, ptr %21, align 1, !tbaa !51
  %23 = call i32 @av_bswap32(i32 noundef %22) #13
  %24 = load i32, ptr %6, align 4, !tbaa !39
  %25 = and i32 %24, 7
  %26 = shl i32 %23, %25
  %27 = lshr i32 %26, 0
  store i32 %27, ptr %7, align 4, !tbaa !39
  %28 = load i32, ptr %7, align 4, !tbaa !39
  %29 = load i32, ptr %4, align 4, !tbaa !39
  %30 = sub nsw i32 32, %29
  %31 = lshr i32 %28, %30
  store i32 %31, ptr %5, align 4, !tbaa !39
  %32 = load i32, ptr %8, align 4, !tbaa !39
  %33 = load i32, ptr %6, align 4, !tbaa !39
  %34 = load i32, ptr %4, align 4, !tbaa !39
  %35 = add i32 %33, %34
  %36 = icmp ugt i32 %32, %35
  br i1 %36, label %37, label %41

37:                                               ; preds = %2
  %38 = load i32, ptr %6, align 4, !tbaa !39
  %39 = load i32, ptr %4, align 4, !tbaa !39
  %40 = add i32 %38, %39
  br label %43

41:                                               ; preds = %2
  %42 = load i32, ptr %8, align 4, !tbaa !39
  br label %43

43:                                               ; preds = %41, %37
  %44 = phi i32 [ %40, %37 ], [ %42, %41 ]
  store i32 %44, ptr %6, align 4, !tbaa !39
  %45 = load i32, ptr %6, align 4, !tbaa !39
  %46 = load ptr, ptr %3, align 8, !tbaa !71
  %47 = getelementptr inbounds nuw %struct.GetBitContext, ptr %46, i32 0, i32 2
  store i32 %45, ptr %47, align 8, !tbaa !83
  %48 = load i32, ptr %5, align 4, !tbaa !39
  call void @llvm.lifetime.end.p0(i64 4, ptr %8) #11
  call void @llvm.lifetime.end.p0(i64 4, ptr %7) #11
  call void @llvm.lifetime.end.p0(i64 4, ptr %6) #11
  call void @llvm.lifetime.end.p0(i64 4, ptr %5) #11
  ret i32 %48
}

; Function Attrs: inlinehint nounwind uwtable
define internal i64 @get_sbits64(ptr noundef %0, i32 noundef %1) #7 {
  %3 = alloca i64, align 8
  %4 = alloca ptr, align 8
  %5 = alloca i32, align 4
  store ptr %0, ptr %4, align 8, !tbaa !71
  store i32 %1, ptr %5, align 4, !tbaa !39
  %6 = load i32, ptr %5, align 4, !tbaa !39
  %7 = icmp ne i32 %6, 0
  br i1 %7, label %9, label %8

8:                                                ; preds = %2
  store i64 0, ptr %3, align 8
  br label %15

9:                                                ; preds = %2
  %10 = load ptr, ptr %4, align 8, !tbaa !71
  %11 = load i32, ptr %5, align 4, !tbaa !39
  %12 = call i64 @get_bits64(ptr noundef %10, i32 noundef %11)
  %13 = load i32, ptr %5, align 4, !tbaa !39
  %14 = call i64 @sign_extend64(i64 noundef %12, i32 noundef %13) #13
  store i64 %14, ptr %3, align 8
  br label %15

15:                                               ; preds = %9, %8
  %16 = load i64, ptr %3, align 8
  ret i64 %16
}

; Function Attrs: nounwind uwtable
define internal i32 @decode_subframe_lpc_33bps(ptr noundef %0, ptr noundef %1, ptr noundef %2, i32 noundef %3) #1 {
  %5 = alloca i32, align 4
  %6 = alloca ptr, align 8
  %7 = alloca ptr, align 8
  %8 = alloca ptr, align 8
  %9 = alloca i32, align 4
  %10 = alloca i32, align 4
  %11 = alloca i32, align 4
  %12 = alloca i32, align 4
  %13 = alloca i32, align 4
  %14 = alloca [32 x i32], align 16
  %15 = alloca i32, align 4
  store ptr %0, ptr %6, align 8, !tbaa !29
  store ptr %1, ptr %7, align 8, !tbaa !86
  store ptr %2, ptr %8, align 8, !tbaa !45
  store i32 %3, ptr %9, align 4, !tbaa !39
  call void @llvm.lifetime.start.p0(i64 4, ptr %10) #11
  call void @llvm.lifetime.start.p0(i64 4, ptr %11) #11
  call void @llvm.lifetime.start.p0(i64 4, ptr %12) #11
  call void @llvm.lifetime.start.p0(i64 4, ptr %13) #11
  call void @llvm.lifetime.start.p0(i64 128, ptr %14) #11
  store i32 0, ptr %10, align 4, !tbaa !39
  br label %16

16:                                               ; preds = %28, %4
  %17 = load i32, ptr %10, align 4, !tbaa !39
  %18 = load i32, ptr %9, align 4, !tbaa !39
  %19 = icmp slt i32 %17, %18
  br i1 %19, label %20, label %31

20:                                               ; preds = %16
  %21 = load ptr, ptr %6, align 8, !tbaa !29
  %22 = getelementptr inbounds nuw %struct.FLACContext, ptr %21, i32 0, i32 3
  %23 = call i64 @get_sbits64(ptr noundef %22, i32 noundef 33)
  %24 = load ptr, ptr %7, align 8, !tbaa !86
  %25 = load i32, ptr %10, align 4, !tbaa !39
  %26 = sext i32 %25 to i64
  %27 = getelementptr inbounds i64, ptr %24, i64 %26
  store i64 %23, ptr %27, align 8, !tbaa !87
  br label %28

28:                                               ; preds = %20
  %29 = load i32, ptr %10, align 4, !tbaa !39
  %30 = add nsw i32 %29, 1
  store i32 %30, ptr %10, align 4, !tbaa !39
  br label %16, !llvm.loop !132

31:                                               ; preds = %16
  %32 = load ptr, ptr %6, align 8, !tbaa !29
  %33 = getelementptr inbounds nuw %struct.FLACContext, ptr %32, i32 0, i32 3
  %34 = call i32 @get_bits(ptr noundef %33, i32 noundef 4)
  %35 = add i32 %34, 1
  store i32 %35, ptr %12, align 4, !tbaa !39
  %36 = load i32, ptr %12, align 4, !tbaa !39
  %37 = icmp eq i32 %36, 16
  br i1 %37, label %38, label %42

38:                                               ; preds = %31
  %39 = load ptr, ptr %6, align 8, !tbaa !29
  %40 = getelementptr inbounds nuw %struct.FLACContext, ptr %39, i32 0, i32 2
  %41 = load ptr, ptr %40, align 8, !tbaa !31
  call void (ptr, i32, ptr, ...) @av_log(ptr noundef %41, i32 noundef 16, ptr noundef @.str.36)
  store i32 -1094995529, ptr %5, align 4
  store i32 1, ptr %15, align 4
  br label %93

42:                                               ; preds = %31
  %43 = load ptr, ptr %6, align 8, !tbaa !29
  %44 = getelementptr inbounds nuw %struct.FLACContext, ptr %43, i32 0, i32 3
  %45 = call i32 @get_sbits(ptr noundef %44, i32 noundef 5)
  store i32 %45, ptr %13, align 4, !tbaa !39
  %46 = load i32, ptr %13, align 4, !tbaa !39
  %47 = icmp slt i32 %46, 0
  br i1 %47, label %48, label %53

48:                                               ; preds = %42
  %49 = load ptr, ptr %6, align 8, !tbaa !29
  %50 = getelementptr inbounds nuw %struct.FLACContext, ptr %49, i32 0, i32 2
  %51 = load ptr, ptr %50, align 8, !tbaa !31
  %52 = load i32, ptr %13, align 4, !tbaa !39
  call void (ptr, i32, ptr, ...) @av_log(ptr noundef %51, i32 noundef 16, ptr noundef @.str.37, i32 noundef %52)
  store i32 -1094995529, ptr %5, align 4
  store i32 1, ptr %15, align 4
  br label %93

53:                                               ; preds = %42
  store i32 0, ptr %10, align 4, !tbaa !39
  br label %54

54:                                               ; preds = %69, %53
  %55 = load i32, ptr %10, align 4, !tbaa !39
  %56 = load i32, ptr %9, align 4, !tbaa !39
  %57 = icmp slt i32 %55, %56
  br i1 %57, label %58, label %72

58:                                               ; preds = %54
  %59 = load ptr, ptr %6, align 8, !tbaa !29
  %60 = getelementptr inbounds nuw %struct.FLACContext, ptr %59, i32 0, i32 3
  %61 = load i32, ptr %12, align 4, !tbaa !39
  %62 = call i32 @get_sbits(ptr noundef %60, i32 noundef %61)
  %63 = load i32, ptr %9, align 4, !tbaa !39
  %64 = load i32, ptr %10, align 4, !tbaa !39
  %65 = sub nsw i32 %63, %64
  %66 = sub nsw i32 %65, 1
  %67 = sext i32 %66 to i64
  %68 = getelementptr inbounds [32 x i32], ptr %14, i64 0, i64 %67
  store i32 %62, ptr %68, align 4, !tbaa !39
  br label %69

69:                                               ; preds = %58
  %70 = load i32, ptr %10, align 4, !tbaa !39
  %71 = add nsw i32 %70, 1
  store i32 %71, ptr %10, align 4, !tbaa !39
  br label %54, !llvm.loop !133

72:                                               ; preds = %54
  %73 = load ptr, ptr %6, align 8, !tbaa !29
  %74 = load ptr, ptr %8, align 8, !tbaa !45
  %75 = load i32, ptr %9, align 4, !tbaa !39
  %76 = call i32 @decode_residuals(ptr noundef %73, ptr noundef %74, i32 noundef %75)
  store i32 %76, ptr %11, align 4, !tbaa !39
  %77 = icmp slt i32 %76, 0
  br i1 %77, label %78, label %80

78:                                               ; preds = %72
  %79 = load i32, ptr %11, align 4, !tbaa !39
  store i32 %79, ptr %5, align 4
  store i32 1, ptr %15, align 4
  br label %93

80:                                               ; preds = %72
  %81 = load ptr, ptr %6, align 8, !tbaa !29
  %82 = getelementptr inbounds nuw %struct.FLACContext, ptr %81, i32 0, i32 15
  %83 = getelementptr inbounds nuw %struct.FLACDSPContext, ptr %82, i32 0, i32 3
  %84 = load ptr, ptr %83, align 8, !tbaa !134
  %85 = load ptr, ptr %7, align 8, !tbaa !86
  %86 = load ptr, ptr %8, align 8, !tbaa !45
  %87 = getelementptr inbounds [32 x i32], ptr %14, i64 0, i64 0
  %88 = load i32, ptr %9, align 4, !tbaa !39
  %89 = load i32, ptr %13, align 4, !tbaa !39
  %90 = load ptr, ptr %6, align 8, !tbaa !29
  %91 = getelementptr inbounds nuw %struct.FLACContext, ptr %90, i32 0, i32 4
  %92 = load i32, ptr %91, align 8, !tbaa !54
  call void %84(ptr noundef %85, ptr noundef %86, ptr noundef %87, i32 noundef %88, i32 noundef %89, i32 noundef %92)
  store i32 0, ptr %5, align 4
  store i32 1, ptr %15, align 4
  br label %93

93:                                               ; preds = %80, %78, %48, %38
  call void @llvm.lifetime.end.p0(i64 128, ptr %14) #11
  call void @llvm.lifetime.end.p0(i64 4, ptr %13) #11
  call void @llvm.lifetime.end.p0(i64 4, ptr %12) #11
  call void @llvm.lifetime.end.p0(i64 4, ptr %11) #11
  call void @llvm.lifetime.end.p0(i64 4, ptr %10) #11
  %94 = load i32, ptr %5, align 4
  ret i32 %94
}