; Function Attrs: nounwind uwtable
define internal fastcc range(i32 -1094995529, 1) i32 @decode_subframe_lpc_33bps(ptr noundef captures(none) %0, ptr noundef %1, ptr noundef %2, i32 noundef range(i32 1, 2147483617) %3) unnamed_addr #1 {
  %5 = alloca [32 x i32], align 16
  call void @llvm.lifetime.start.p0(i64 128, ptr nonnull %5) #10
  %6 = getelementptr inbounds nuw i8, ptr %0, i64 48
  %7 = getelementptr inbounds nuw i8, ptr %0, i64 64
  %8 = getelementptr inbounds nuw i8, ptr %0, i64 72
  %9 = load i32, ptr %8, align 8, !tbaa !51
  %10 = load ptr, ptr %6, align 8, !tbaa !49
  %.promoted = load i32, ptr %7, align 8, !tbaa !53
  %wide.trip.count = zext nneg i32 %3 to i64
  br label %11

11:                                               ; preds = %4, %11
  %indvars.iv = phi i64 [ 0, %4 ], [ %indvars.iv.next, %11 ]
  %12 = phi i32 [ %.promoted, %4 ], [ %42, %11 ]
  %13 = lshr i32 %12, 3
  %14 = zext nneg i32 %13 to i64
  %15 = getelementptr inbounds nuw i8, ptr %10, i64 %14
  %16 = load i32, ptr %15, align 1, !tbaa !46
  %17 = tail call i32 @llvm.bswap.i32(i32 %16)
  %18 = and i32 %12, 7
  %19 = shl i32 %17, %18
  %20 = lshr i32 %19, 31
  %21 = add i32 %12, 1
  %22 = tail call i32 @llvm.umin.i32(i32 %9, i32 %21)
  store i32 %22, ptr %7, align 8, !tbaa !53
  %23 = lshr i32 %22, 3
  %24 = zext nneg i32 %23 to i64
  %25 = getelementptr inbounds nuw i8, ptr %10, i64 %24
  %26 = load i32, ptr %25, align 1, !tbaa !46
  %27 = tail call i32 @llvm.bswap.i32(i32 %26)
  %28 = and i32 %22, 7
  %29 = shl i32 %27, %28
  %30 = and i32 %29, -65536
  %31 = add i32 %22, 16
  %32 = tail call i32 @llvm.umin.i32(i32 %9, i32 %31)
  store i32 %32, ptr %7, align 8, !tbaa !53
  %33 = lshr i32 %32, 3
  %34 = zext nneg i32 %33 to i64
  %35 = getelementptr inbounds nuw i8, ptr %10, i64 %34
  %36 = load i32, ptr %35, align 1, !tbaa !46
  %37 = tail call i32 @llvm.bswap.i32(i32 %36)
  %38 = and i32 %32, 7
  %39 = shl i32 %37, %38
  %40 = lshr i32 %39, 16
  %41 = add i32 %32, 16
  %42 = tail call i32 @llvm.umin.i32(i32 %9, i32 %41)
  store i32 %42, ptr %7, align 8, !tbaa !53
  %43 = or disjoint i32 %40, %30
  %44 = zext nneg i32 %20 to i64
  %45 = zext i32 %43 to i64
  %46 = shl nuw i64 %44, 63
  %47 = shl nuw nsw i64 %45, 31
  %48 = or disjoint i64 %47, %46
  %49 = ashr exact i64 %48, 31
  %50 = getelementptr inbounds nuw i64, ptr %1, i64 %indvars.iv
  store i64 %49, ptr %50, align 8, !tbaa !70
  %indvars.iv.next = add nuw nsw i64 %indvars.iv, 1
  %exitcond.not = icmp eq i64 %indvars.iv.next, %wide.trip.count
  br i1 %exitcond.not, label %51, label %11, !llvm.loop !121

51:                                               ; preds = %11
  %52 = lshr i32 %42, 3
  %53 = zext nneg i32 %52 to i64
  %54 = getelementptr inbounds nuw i8, ptr %10, i64 %53
  %55 = load i32, ptr %54, align 1, !tbaa !46
  %56 = tail call i32 @llvm.bswap.i32(i32 %55)
  %57 = and i32 %42, 7
  %58 = shl i32 %56, %57
  %59 = lshr i32 %58, 28
  %60 = add i32 %42, 4
  %61 = tail call i32 @llvm.umin.i32(i32 %9, i32 %60)
  store i32 %61, ptr %7, align 8, !tbaa !53
  %62 = add nuw nsw i32 %59, 1
  %63 = icmp eq i32 %62, 16
  br i1 %63, label %64, label %67

64:                                               ; preds = %51
  %65 = getelementptr inbounds nuw i8, ptr %0, i64 40
  %66 = load ptr, ptr %65, align 8, !tbaa !27
  tail call void (ptr, i32, ptr, ...) @av_log(ptr noundef %66, i32 noundef 16, ptr noundef nonnull @.str.36) #10
  br label %107

67:                                               ; preds = %51
  %68 = lshr i32 %61, 3
  %69 = zext nneg i32 %68 to i64
  %70 = getelementptr inbounds nuw i8, ptr %10, i64 %69
  %71 = load i32, ptr %70, align 1, !tbaa !46
  %72 = tail call i32 @llvm.bswap.i32(i32 %71)
  %73 = and i32 %61, 7
  %74 = shl i32 %72, %73
  %75 = ashr i32 %74, 27
  %76 = add i32 %61, 5
  %77 = tail call i32 @llvm.umin.i32(i32 %9, i32 %76)
  store i32 %77, ptr %7, align 8, !tbaa !53
  %78 = icmp slt i32 %75, 0
  br i1 %78, label %81, label %.preheader

.preheader:                                       ; preds = %67
  %79 = xor i32 %59, 31
  %80 = zext nneg i32 %3 to i64
  br label %84

81:                                               ; preds = %67
  %82 = getelementptr inbounds nuw i8, ptr %0, i64 40
  %83 = load ptr, ptr %82, align 8, !tbaa !27
  tail call void (ptr, i32, ptr, ...) @av_log(ptr noundef %83, i32 noundef 16, ptr noundef nonnull @.str.37, i32 noundef %75) #10
  br label %107

84:                                               ; preds = %.preheader, %84
  %indvars.iv40 = phi i64 [ 0, %.preheader ], [ %indvars.iv.next41, %84 ]
  %85 = phi i32 [ %77, %.preheader ], [ %95, %84 ]
  %86 = lshr i32 %85, 3
  %87 = zext nneg i32 %86 to i64
  %88 = getelementptr inbounds nuw i8, ptr %10, i64 %87
  %89 = load i32, ptr %88, align 1, !tbaa !46
  %90 = tail call i32 @llvm.bswap.i32(i32 %89)
  %91 = and i32 %85, 7
  %92 = shl i32 %90, %91
  %93 = ashr i32 %92, %79
  %94 = add i32 %85, %62
  %95 = tail call i32 @llvm.umin.i32(i32 %9, i32 %94)
  store i32 %95, ptr %7, align 8, !tbaa !53
  %96 = xor i64 %indvars.iv40, -1
  %97 = add nsw i64 %80, %96
  %98 = getelementptr inbounds [32 x i32], ptr %5, i64 0, i64 %97
  store i32 %93, ptr %98, align 4, !tbaa !45
  %indvars.iv.next41 = add nuw nsw i64 %indvars.iv40, 1
  %exitcond44.not = icmp eq i64 %indvars.iv.next41, %wide.trip.count
  br i1 %exitcond44.not, label %99, label %84, !llvm.loop !122

99:                                               ; preds = %84
  %100 = tail call fastcc i32 @decode_residuals(ptr noundef nonnull %0, ptr noundef %2, i32 noundef %3)
  %101 = icmp slt i32 %100, 0
  br i1 %101, label %107, label %102

102:                                              ; preds = %99
  %103 = getelementptr inbounds nuw i8, ptr %0, i64 248
  %104 = load ptr, ptr %103, align 8, !tbaa !123
  %105 = getelementptr inbounds nuw i8, ptr %0, i64 80
  %106 = load i32, ptr %105, align 8, !tbaa !62
  call void %104(ptr noundef nonnull %1, ptr noundef %2, ptr noundef nonnull %5, i32 noundef %3, i32 noundef %75, i32 noundef %106) #10
  br label %107

107:                                              ; preds = %99, %102, %81, %64
  %.0 = phi i32 [ -1094995529, %64 ], [ -1094995529, %81 ], [ 0, %102 ], [ %100, %99 ]
  call void @llvm.lifetime.end.p0(i64 128, ptr nonnull %5) #10
  ret i32 %.0
}